target datalayout = "e-m:e-p270:32:32-p271:32:32-p272:64:64-i64:64-i128:128-f80:128-n8:16:32:64-S128"
target triple = "x86_64-pc-linux-gnu"

%class.ImageFileReader = type { ptr, i32, i32, ptr, i64, %class.ImageHeader, i64, ptr, ptr, ptr, ptr, ptr, ptr }
%class.ImageHeader = type { i32, i32, i32, i32, i32, i32, i32 }

@_ZN15ImageFileReader16memory_map_imageE = hidden global i8 1, align 1
@_ZN15ImageModuleDataD1Ev = hidden unnamed_addr alias void (ptr), ptr @_ZN15ImageModuleDataD2Ev

; Function Attrs: mustprogress nounwind uwtable
define linkonce_odr hidden noundef i64 @_ZNK15ImageFileReader8map_sizeEv(ptr noundef nonnull align 8 dereferenceable(120) %0) #0 comdat align 2 {
  %2 = alloca ptr, align 8
  store ptr %0, ptr %2, align 8
  %3 = load ptr, ptr %2, align 8
  %4 = load i8, ptr @_ZN15ImageFileReader16memory_map_imageE, align 1
  %5 = trunc i8 %4 to i1
  br i1 %5, label %6, label %9

6:                                                ; preds = %1
  %7 = getelementptr inbounds %class.ImageFileReader, ptr %3, i32 0, i32 4
  %8 = load i64, ptr %7, align 8
  br label %12

9:                                                ; preds = %1
  %10 = getelementptr inbounds %class.ImageFileReader, ptr %3, i32 0, i32 6
  %11 = load i64, ptr %10, align 8
  br label %12

12:                                               ; preds = %9, %6
  %13 = phi i64 [ %8, %6 ], [ %11, %9 ]
  ret i64 %13
}

; Function Attrs: mustprogress uwtable
define hidden void @_ZN15ImageFileReader5closeEv(ptr noundef nonnull align 8 dereferenceable(120) %0) #1 align 2 {
  %2 = alloca ptr, align 8
  store ptr %0, ptr %2, align 8
  %3 = load ptr, ptr %2, align 8
  %4 = getelementptr inbounds %class.ImageFileReader, ptr %3, i32 0, i32 7
  %5 = load ptr, ptr %4, align 8
  %6 = icmp ne ptr %5, null
  br i1 %6, label %7, label %13

7:                                                ; preds = %1
  %8 = getelementptr inbounds %class.ImageFileReader, ptr %3, i32 0, i32 7
  %9 = load ptr, ptr %8, align 8
  %10 = call noundef i64 @_ZNK15ImageFileReader8map_sizeEv(ptr noundef nonnull align 8 dereferenceable(120) %3)
  %11 = call noundef i32 @_ZN9osSupport12unmap_memoryEPvm(ptr noundef %9, i64 noundef %10)
  %12 = getelementptr inbounds %class.ImageFileReader, ptr %3, i32 0, i32 7
  store ptr null, ptr %12, align 8
  br label %13

13:                                               ; preds = %7, %1
  %14 = getelementptr inbounds %class.ImageFileReader, ptr %3, i32 0, i32 2
  %15 = load i32, ptr %14, align 4
  %16 = icmp ne i32 %15, -1
  br i1 %16, label %17, label %22

17:                                               ; preds = %13
  %18 = getelementptr inbounds %class.ImageFileReader, ptr %3, i32 0, i32 2
  %19 = load i32, ptr %18, align 4
  %20 = call noundef i32 @_ZN9osSupport5closeEi(i32 noundef %19)
  %21 = getelementptr inbounds %class.ImageFileReader, ptr %3, i32 0, i32 2
  store i32 -1, ptr %21, align 4
  br label %22

22:                                               ; preds = %17, %13
  %23 = getelementptr inbounds %class.ImageFileReader, ptr %3, i32 0, i32 12
  %24 = load ptr, ptr %23, align 8
  %25 = icmp ne ptr %24, null
  br i1 %25, label %26, label %33

26:                                               ; preds = %22
  %27 = getelementptr inbounds %class.ImageFileReader, ptr %3, i32 0, i32 12
  %28 = load ptr, ptr %27, align 8
  %29 = icmp eq ptr %28, null
  br i1 %29, label %31, label %30

30:                                               ; preds = %26
  call void @_ZN15ImageModuleDataD1Ev(ptr noundef nonnull align 8 dereferenceable(16) %28) #14
  call void @_ZdlPvm(ptr noundef %28, i64 noundef 16) #15
  br label %31

31:                                               ; preds = %30, %26
  %32 = getelementptr inbounds %class.ImageFileReader, ptr %3, i32 0, i32 12
  store ptr null, ptr %32, align 8
  br label %33

33:                                               ; preds = %31, %22
  ret void
}

; Function Attrs: mustprogress nounwind uwtable
define hidden void @_ZN15ImageFileReaderD2Ev(ptr noundef nonnull align 8 dereferenceable(120) %0) unnamed_addr #0 align 2 personality ptr @__gxx_personality_v0 {
  %2 = alloca ptr, align 8
  store ptr %0, ptr %2, align 8
  %3 = load ptr, ptr %2, align 8
  invoke void @_ZN15ImageFileReader5closeEv(ptr noundef nonnull align 8 dereferenceable(120) %3)
          to label %4 unwind label %26

4:                                                ; preds = %1
  %5 = getelementptr inbounds %class.ImageFileReader, ptr %3, i32 0, i32 0
  %6 = load ptr, ptr %5, align 8
  %7 = icmp ne ptr %6, null
  br i1 %7, label %8, label %15

8:                                                ; preds = %4
  %9 = getelementptr inbounds %class.ImageFileReader, ptr %3, i32 0, i32 0
  %10 = load ptr, ptr %9, align 8
  %11 = icmp eq ptr %10, null
  br i1 %11, label %13, label %12

12:                                               ; preds = %8
  call void @_ZdaPv(ptr noundef %10) #15
  br label %13

13:                                               ; preds = %12, %8
  %14 = getelementptr inbounds %class.ImageFileReader, ptr %3, i32 0, i32 0
  store ptr null, ptr %14, align 8
  br label %15

15:                                               ; preds = %13, %4
  %16 = getelementptr inbounds %class.ImageFileReader, ptr %3, i32 0, i32 12
  %17 = load ptr, ptr %16, align 8
  %18 = icmp ne ptr %17, null
  br i1 %18, label %19, label %25

19:                                               ; preds = %15
  %20 = getelementptr inbounds %class.ImageFileReader, ptr %3, i32 0, i32 12
  %21 = load ptr, ptr %20, align 8
  %22 = icmp eq ptr %21, null
  br i1 %22, label %24, label %23

23:                                               ; preds = %19
  call void @_ZN15ImageModuleDataD1Ev(ptr noundef nonnull align 8 dereferenceable(16) %21) #14
  call void @_ZdlPvm(ptr noundef %21, i64 noundef 16) #15
  br label %24

24:                                               ; preds = %23, %19
  br label %25

25:                                               ; preds = %24, %15
  ret void

26:                                               ; preds = %1
  %27 = landingpad { ptr, i32 }
          catch ptr null
  %28 = extractvalue { ptr, i32 } %27, 0
  call void @__clang_call_terminate(ptr %28) #18
  unreachable
}