; Function Attrs: mustprogress nounwind uwtable
define hidden void @_ZN15ImageFileReaderD2Ev(ptr nocapture noundef nonnull align 8 dereferenceable(120) %0) unnamed_addr #15 align 2 personality ptr @__gxx_personality_v0 {
  %2 = getelementptr inbounds i8, ptr %0, i64 72
  %3 = load ptr, ptr %2, align 8
  %.not.i = icmp eq ptr %3, null
  br i1 %.not.i, label %9, label %4

4:                                                ; preds = %1
  %5 = load i8, ptr @_ZN15ImageFileReader16memory_map_imageE, align 1
  %6 = trunc i8 %5 to i1
  %.in.v.i.i = select i1 %6, i64 24, i64 64
  %.in.i.i = getelementptr inbounds i8, ptr %0, i64 %.in.v.i.i
  %7 = load i64, ptr %.in.i.i, align 8
  %8 = invoke noundef i32 @_ZN9osSupport12unmap_memoryEPvm(ptr noundef nonnull %3, i64 noundef %7)
          to label %.noexc unwind label %21

.noexc:                                           ; preds = %4
  store ptr null, ptr %2, align 8
  br label %9

9:                                                ; preds = %.noexc, %1
  %10 = getelementptr inbounds i8, ptr %0, i64 12
  %11 = load i32, ptr %10, align 4
  %.not3.i = icmp eq i32 %11, -1
  br i1 %.not3.i, label %14, label %12

12:                                               ; preds = %9
  %13 = invoke noundef i32 @_ZN9osSupport5closeEi(i32 noundef %11)
          to label %.noexc3 unwind label %21

.noexc3:                                          ; preds = %12
  store i32 -1, ptr %10, align 4
  br label %14

14:                                               ; preds = %.noexc3, %9
  %15 = getelementptr inbounds i8, ptr %0, i64 112
  %16 = load ptr, ptr %15, align 8
  %.not4.i = icmp eq ptr %16, null
  br i1 %.not4.i, label %_ZN15ImageFileReader5closeEv.exit, label %17

17:                                               ; preds = %14
  tail call void @_ZdlPvm(ptr noundef nonnull %16, i64 noundef 16) #24
  store ptr null, ptr %15, align 8
  br label %_ZN15ImageFileReader5closeEv.exit

_ZN15ImageFileReader5closeEv.exit:                ; preds = %17, %14
  %18 = load ptr, ptr %0, align 8
  %.not = icmp eq ptr %18, null
  br i1 %.not, label %.thread, label %19

19:                                               ; preds = %_ZN15ImageFileReader5closeEv.exit
  tail call void @_ZdaPv(ptr noundef nonnull %18) #24
  store ptr null, ptr %0, align 8
  %.pre = load ptr, ptr %15, align 8
  %.not2 = icmp eq ptr %.pre, null
  br i1 %.not2, label %.thread, label %20

20:                                               ; preds = %19
  tail call void @_ZdlPvm(ptr noundef nonnull %.pre, i64 noundef 16) #24
  br label %.thread

.thread:                                          ; preds = %_ZN15ImageFileReader5closeEv.exit, %20, %19
  ret void

21:                                               ; preds = %12, %4
  %22 = landingpad { ptr, i32 }
          catch ptr null
  %23 = extractvalue { ptr, i32 } %22, 0
  tail call void @__clang_call_terminate(ptr %23) #27
  unreachable
}